; Function Attrs: mustprogress uwtable
define void @_ZNK5Ipopt10Journalist6PrintfENS_13EJournalLevelENS_16EJournalCategoryEPKcz(ptr noundef nonnull align 8 dereferenceable(40) %0, i32 noundef %1, i32 noundef %2, ptr noundef %3, ...) unnamed_addr #3 align 2 {
  %5 = alloca [1 x %struct.__va_list_tag], align 16
  call void @llvm.va_start(ptr nonnull %5)
  %6 = load ptr, ptr %0, align 8
  %7 = getelementptr inbounds i8, ptr %6, i64 40
  %8 = load ptr, ptr %7, align 8
  call void %8(ptr noundef nonnull align 8 dereferenceable(40) %0, i32 noundef %1, i32 noundef %2, ptr noundef %3, ptr noundef nonnull %5)
  call void @llvm.va_end(ptr nonnull %5)
  ret void
}